; Function Attrs: uwtable
define void @_ZTv0_n32_N8QuantLib19FixedVsFloatingSwap7results5resetEv(ptr noundef %this) unnamed_addr #14 align 2 {
entry:
  %vtable = load ptr, ptr %this, align 8, !tbaa !33
  %0 = getelementptr inbounds i8, ptr %vtable, i64 -32
  %1 = load i64, ptr %0, align 8
  %2 = getelementptr inbounds i8, ptr %this, i64 %1
  tail call void @_ZN8QuantLib4Swap7results5resetEv(ptr noundef nonnull align 8 dereferenceable(184) %2)
  %fairRate.i = getelementptr inbounds nuw i8, ptr %2, i64 184
  store double 0x47EFFFFFE0000000, ptr %fairRate.i, align 8, !tbaa !141
  %fairSpread.i = getelementptr inbounds nuw i8, ptr %2, i64 192
  store double 0x47EFFFFFE0000000, ptr %fairSpread.i, align 8, !tbaa !145
  ret void
}